target datalayout = "e-m:e-p270:32:32-p271:32:32-p272:64:64-i64:64-i128:128-f80:128-n8:16:32:64-S128"
target triple = "x86_64-pc-linux-gnu"

@_Py_ctype_table = external constant [256 x i32], align 16
@_Py_ctype_tolower = external constant [256 x i8], align 16

; Function Attrs: nounwind uwtable
define hidden i32 @_Py_normalize_encoding(ptr noundef %0, ptr noundef %1, i64 noundef %2) #0 {
  %4 = alloca i32, align 4
  %5 = alloca ptr, align 8
  %6 = alloca ptr, align 8
  %7 = alloca i64, align 8
  %8 = alloca ptr, align 8
  %9 = alloca ptr, align 8
  %10 = alloca ptr, align 8
  %11 = alloca i32, align 4
  %12 = alloca i8, align 1
  %13 = alloca i32, align 4
  store ptr %0, ptr %5, align 8, !tbaa !189
  store ptr %1, ptr %6, align 8, !tbaa !189
  store i64 %2, ptr %7, align 8, !tbaa !185
  call void @llvm.lifetime.start.p0(i64 8, ptr %8) #12
  call void @llvm.lifetime.start.p0(i64 8, ptr %9) #12
  call void @llvm.lifetime.start.p0(i64 8, ptr %10) #12
  call void @llvm.lifetime.start.p0(i64 4, ptr %11) #12
  %14 = load ptr, ptr %5, align 8, !tbaa !189
  store ptr %14, ptr %8, align 8, !tbaa !189
  %15 = load ptr, ptr %6, align 8, !tbaa !189
  store ptr %15, ptr %9, align 8, !tbaa !189
  %16 = load ptr, ptr %6, align 8, !tbaa !189
  %17 = load i64, ptr %7, align 8, !tbaa !185
  %18 = sub i64 %17, 1
  %19 = getelementptr i8, ptr %16, i64 %18
  store ptr %19, ptr %10, align 8, !tbaa !189
  store i32 0, ptr %11, align 4, !tbaa !190
  br label %20

20:                                               ; preds = %78, %3
  br label %21

21:                                               ; preds = %20
  call void @llvm.lifetime.start.p0(i64 1, ptr %12) #12
  %22 = load ptr, ptr %8, align 8, !tbaa !189
  %23 = load i8, ptr %22, align 1, !tbaa !191
  store i8 %23, ptr %12, align 1, !tbaa !191
  %24 = load i8, ptr %12, align 1, !tbaa !191
  %25 = sext i8 %24 to i32
  %26 = icmp eq i32 %25, 0
  br i1 %26, label %27, label %28

27:                                               ; preds = %21
  store i32 3, ptr %13, align 4
  br label %76

28:                                               ; preds = %21
  %29 = load i8, ptr %12, align 1, !tbaa !191
  %30 = sext i8 %29 to i32
  %31 = and i32 %30, 255
  %32 = trunc i32 %31 to i8
  %33 = zext i8 %32 to i64
  %34 = getelementptr [256 x i32], ptr @_Py_ctype_table, i64 0, i64 %33
  %35 = load i32, ptr %34, align 4, !tbaa !190
  %36 = and i32 %35, 7
  %37 = icmp ne i32 %36, 0
  br i1 %37, label %42, label %38

38:                                               ; preds = %28
  %39 = load i8, ptr %12, align 1, !tbaa !191
  %40 = sext i8 %39 to i32
  %41 = icmp eq i32 %40, 46
  br i1 %41, label %42, label %72

42:                                               ; preds = %38, %28
  %43 = load i32, ptr %11, align 4, !tbaa !190
  %44 = icmp ne i32 %43, 0
  br i1 %44, label %45, label %57

45:                                               ; preds = %42
  %46 = load ptr, ptr %9, align 8, !tbaa !189
  %47 = load ptr, ptr %6, align 8, !tbaa !189
  %48 = icmp ne ptr %46, %47
  br i1 %48, label %49, label %57

49:                                               ; preds = %45
  %50 = load ptr, ptr %9, align 8, !tbaa !189
  %51 = load ptr, ptr %10, align 8, !tbaa !189
  %52 = icmp eq ptr %50, %51
  br i1 %52, label %53, label %54

53:                                               ; preds = %49
  store i32 0, ptr %4, align 4
  store i32 1, ptr %13, align 4
  br label %76

54:                                               ; preds = %49
  %55 = load ptr, ptr %9, align 8, !tbaa !189
  %56 = getelementptr i8, ptr %55, i32 1
  store ptr %56, ptr %9, align 8, !tbaa !189
  store i8 95, ptr %55, align 1, !tbaa !191
  br label %57

57:                                               ; preds = %54, %45, %42
  store i32 0, ptr %11, align 4, !tbaa !190
  %58 = load ptr, ptr %9, align 8, !tbaa !189
  %59 = load ptr, ptr %10, align 8, !tbaa !189
  %60 = icmp eq ptr %58, %59
  br i1 %60, label %61, label %62

61:                                               ; preds = %57
  store i32 0, ptr %4, align 4
  store i32 1, ptr %13, align 4
  br label %76

62:                                               ; preds = %57
  %63 = load i8, ptr %12, align 1, !tbaa !191
  %64 = sext i8 %63 to i32
  %65 = and i32 %64, 255
  %66 = trunc i32 %65 to i8
  %67 = zext i8 %66 to i64
  %68 = getelementptr [256 x i8], ptr @_Py_ctype_tolower, i64 0, i64 %67
  %69 = load i8, ptr %68, align 1, !tbaa !191
  %70 = load ptr, ptr %9, align 8, !tbaa !189
  %71 = getelementptr i8, ptr %70, i32 1
  store ptr %71, ptr %9, align 8, !tbaa !189
  store i8 %69, ptr %70, align 1, !tbaa !191
  br label %73

72:                                               ; preds = %38
  store i32 1, ptr %11, align 4, !tbaa !190
  br label %73

73:                                               ; preds = %72, %62
  %74 = load ptr, ptr %8, align 8, !tbaa !189
  %75 = getelementptr i8, ptr %74, i32 1
  store ptr %75, ptr %8, align 8, !tbaa !189
  store i32 0, ptr %13, align 4
  br label %76

76:                                               ; preds = %73, %61, %53, %27
  call void @llvm.lifetime.end.p0(i64 1, ptr %12) #12
  %77 = load i32, ptr %13, align 4
  switch i32 %77, label %81 [
    i32 0, label %78
    i32 3, label %79
  ]

78:                                               ; preds = %76
  br label %20

79:                                               ; preds = %76
  %80 = load ptr, ptr %9, align 8, !tbaa !189
  store i8 0, ptr %80, align 1, !tbaa !191
  store i32 1, ptr %4, align 4
  store i32 1, ptr %13, align 4
  br label %81

81:                                               ; preds = %79, %76
  call void @llvm.lifetime.end.p0(i64 4, ptr %11) #12
  call void @llvm.lifetime.end.p0(i64 8, ptr %10) #12
  call void @llvm.lifetime.end.p0(i64 8, ptr %9) #12
  call void @llvm.lifetime.end.p0(i64 8, ptr %8) #12
  %82 = load i32, ptr %4, align 4
  ret i32 %82
}