; Function Attrs: nofree norecurse nosync nounwind memory(argmem: readwrite) uwtable
define hidden range(i32 0, 2) i32 @_Py_normalize_encoding(ptr noundef readonly captures(none) %0, ptr noundef writeonly %1, i64 noundef %2) local_unnamed_addr #14 {
  %4 = getelementptr i8, ptr %1, i64 %2
  %5 = getelementptr i8, ptr %4, i64 -1
  %6 = load i8, ptr %0, align 1, !tbaa !195
  %7 = icmp eq i8 %6, 0
  br i1 %7, label %._crit_edge, label %.lr.ph

.lr.ph:                                           ; preds = %3, %26
  %8 = phi i8 [ %28, %26 ], [ %6, %3 ]
  %.02448 = phi i32 [ %.226, %26 ], [ 0, %3 ]
  %.02747 = phi ptr [ %27, %26 ], [ %0, %3 ]
  %.02946 = phi ptr [ %.3, %26 ], [ %1, %3 ]
  %9 = zext i8 %8 to i64
  %10 = getelementptr [256 x i32], ptr @_Py_ctype_table, i64 0, i64 %9
  %11 = load i32, ptr %10, align 4, !tbaa !200
  %12 = and i32 %11, 7
  %13 = icmp ne i32 %12, 0
  %14 = icmp eq i8 %8, 46
  %or.cond = or i1 %14, %13
  br i1 %or.cond, label %15, label %26

15:                                               ; preds = %.lr.ph
  %.not = icmp eq i32 %.02448, 0
  %.not33 = icmp eq ptr %.02946, %1
  %or.cond34 = select i1 %.not, i1 true, i1 %.not33
  br i1 %or.cond34, label %20, label %16

16:                                               ; preds = %15
  %17 = icmp eq ptr %.02946, %5
  br i1 %17, label %.thread, label %18

18:                                               ; preds = %16
  %19 = getelementptr i8, ptr %.02946, i64 1
  store i8 95, ptr %.02946, align 1, !tbaa !195
  br label %20

20:                                               ; preds = %18, %15
  %.231 = phi ptr [ %19, %18 ], [ %.02946, %15 ]
  %21 = icmp eq ptr %.231, %5
  br i1 %21, label %.thread, label %22

22:                                               ; preds = %20
  %23 = getelementptr [256 x i8], ptr @_Py_ctype_tolower, i64 0, i64 %9
  %24 = load i8, ptr %23, align 1, !tbaa !195
  %25 = getelementptr i8, ptr %.231, i64 1
  store i8 %24, ptr %.231, align 1, !tbaa !195
  br label %26

26:                                               ; preds = %22, %.lr.ph
  %.3 = phi ptr [ %25, %22 ], [ %.02946, %.lr.ph ]
  %.226 = phi i32 [ 0, %22 ], [ 1, %.lr.ph ]
  %27 = getelementptr i8, ptr %.02747, i64 1
  %28 = load i8, ptr %27, align 1, !tbaa !195
  %29 = icmp eq i8 %28, 0
  br i1 %29, label %._crit_edge, label %.lr.ph

._crit_edge:                                      ; preds = %26, %3
  %.029.lcssa = phi ptr [ %1, %3 ], [ %.3, %26 ]
  store i8 0, ptr %.029.lcssa, align 1, !tbaa !195
  br label %.thread

.thread:                                          ; preds = %20, %16, %._crit_edge
  %.2 = phi i32 [ 1, %._crit_edge ], [ 0, %16 ], [ 0, %20 ]
  ret i32 %.2
}